; Function Attrs: null_pointer_is_valid sspstrong uwtable
define internal i32 @dissect_openvpn_msg_tcp(ptr noundef %0, ptr noundef %1, ptr noundef %2, ptr readnone captures(none) %3) #0 {
  %5 = load i32, ptr @proto_openvpn, align 4
  %6 = tail call ptr @proto_tree_add_item(ptr noundef %2, i32 noundef %5, ptr noundef %0, i32 noundef 0, i32 noundef -1, i32 noundef 0)
  %7 = load i32, ptr @ett_openvpn, align 4
  %8 = tail call ptr @proto_item_add_subtree(ptr noundef %6, i32 noundef %7)
  %9 = load i32, ptr @hf_openvpn_plen, align 4
  %10 = tail call ptr @proto_tree_add_item(ptr noundef %8, i32 noundef %9, ptr noundef %0, i32 noundef 0, i32 noundef 2, i32 noundef 0)
  %11 = tail call fastcc i32 @dissect_openvpn_msg_common(ptr noundef %0, ptr noundef %1, ptr noundef %8, ptr noundef %2, i32 noundef 2)
  ret i32 %11
}